target datalayout = "e-m:e-p270:32:32-p271:32:32-p272:64:64-i64:64-i128:128-f80:128-n8:16:32:64-S128"
target triple = "x86_64-pc-linux-gnu"

%struct.ARKodeRelaxMemRec = type { ptr, ptr, ptr, ptr, i32, i64, i64, i64, double, double, double, double, double, double, double, double, double, i32, double, double, double, i32, i64, i64, i64 }
%struct.ARKodeMemRec = type { ptr, double, ptr, i32, i32, double, double, ptr, i32, double, ptr, i32, i32, ptr, ptr, i32, ptr, ptr, i32, ptr, ptr, ptr, ptr, ptr, ptr, ptr, ptr, ptr, ptr, ptr, ptr, ptr, ptr, ptr, i32, ptr, ptr, ptr, i32, ptr, ptr, ptr, ptr, ptr, ptr, i32, i32, i32, double, double, double, double, double, double, double, double, double, double, i32, ptr, i64, i32, i32, i32, i32, i64, i64, i32, i64, i64, i64, i64, i64, i64, i64, double, double, double, double, double, i32, i32, i32, i32, i32, i32, i32, i32, ptr, i32, ptr, ptr, ptr, ptr, i32, i32, i32 }

@.str = private unnamed_addr constant [126 x i8] c"generated/home/dtcxzyw/WorkSpace/Projects/compilers/llvm-opt-benchmark/bench/sundials/sundials/src/arkode/arkode_relaxation.c\00", align 1
@__func__.arkRelaxPrintAllStats = private unnamed_addr constant [22 x i8] c"arkRelaxPrintAllStats\00", align 1
@.str.2 = private unnamed_addr constant [36 x i8] c"Relax fn evals               = %ld\0A\00", align 1
@.str.3 = private unnamed_addr constant [36 x i8] c"Relax Jac evals              = %ld\0A\00", align 1
@.str.4 = private unnamed_addr constant [36 x i8] c"Relax fails                  = %ld\0A\00", align 1
@.str.5 = private unnamed_addr constant [36 x i8] c"Relax bound fails            = %ld\0A\00", align 1
@.str.6 = private unnamed_addr constant [36 x i8] c"Relax NLS iters              = %ld\0A\00", align 1
@.str.7 = private unnamed_addr constant [36 x i8] c"Relax NLS fails              = %ld\0A\00", align 1
@.str.8 = private unnamed_addr constant [20 x i8] c",Relax fn evals,%ld\00", align 1
@.str.9 = private unnamed_addr constant [21 x i8] c",Relax Jac evals,%ld\00", align 1
@.str.10 = private unnamed_addr constant [17 x i8] c",Relax fails,%ld\00", align 1
@.str.11 = private unnamed_addr constant [23 x i8] c",Relax bound fails,%ld\00", align 1
@.str.12 = private unnamed_addr constant [21 x i8] c",Relax NLS iters,%ld\00", align 1
@.str.13 = private unnamed_addr constant [21 x i8] c",Relax NLS fails,%ld\00", align 1
@.str.14 = private unnamed_addr constant [27 x i8] c"Invalid formatting option.\00", align 1
@.str.15 = private unnamed_addr constant [27 x i8] c"arkode_mem = NULL illegal.\00", align 1
@.str.19 = private unnamed_addr constant [27 x i8] c"Relaxation memory is NULL.\00", align 1

; Function Attrs: nounwind uwtable
define internal i32 @arkRelaxAccessMem(ptr noundef %0, ptr noundef %1, ptr noundef %2, ptr noundef %3) #0 {
  %5 = alloca i32, align 4
  %6 = alloca ptr, align 8
  %7 = alloca ptr, align 8
  %8 = alloca ptr, align 8
  %9 = alloca ptr, align 8
  store ptr %0, ptr %6, align 8
  store ptr %1, ptr %7, align 8
  store ptr %2, ptr %8, align 8
  store ptr %3, ptr %9, align 8
  %10 = load ptr, ptr %6, align 8
  %11 = icmp ne ptr %10, null
  br i1 %11, label %14, label %12

12:                                               ; preds = %4
  %13 = load ptr, ptr %7, align 8
  call void (ptr, i32, i32, ptr, ptr, ptr, ...) @arkProcessError(ptr noundef null, i32 noundef -21, i32 noundef 42, ptr noundef %13, ptr noundef @.str, ptr noundef @.str.15)
  store i32 -21, ptr %5, align 4
  br label %32

14:                                               ; preds = %4
  %15 = load ptr, ptr %6, align 8
  %16 = load ptr, ptr %8, align 8
  store ptr %15, ptr %16, align 8
  %17 = load ptr, ptr %8, align 8
  %18 = load ptr, ptr %17, align 8
  %19 = getelementptr inbounds %struct.ARKodeMemRec, ptr %18, i32 0, i32 90
  %20 = load ptr, ptr %19, align 8
  %21 = icmp ne ptr %20, null
  br i1 %21, label %26, label %22

22:                                               ; preds = %14
  %23 = load ptr, ptr %8, align 8
  %24 = load ptr, ptr %23, align 8
  %25 = load ptr, ptr %7, align 8
  call void (ptr, i32, i32, ptr, ptr, ptr, ...) @arkProcessError(ptr noundef %24, i32 noundef -44, i32 noundef 50, ptr noundef %25, ptr noundef @.str, ptr noundef @.str.19)
  store i32 -44, ptr %5, align 4
  br label %32

26:                                               ; preds = %14
  %27 = load ptr, ptr %8, align 8
  %28 = load ptr, ptr %27, align 8
  %29 = getelementptr inbounds %struct.ARKodeMemRec, ptr %28, i32 0, i32 90
  %30 = load ptr, ptr %29, align 8
  %31 = load ptr, ptr %9, align 8
  store ptr %30, ptr %31, align 8
  store i32 0, ptr %5, align 4
  br label %32

32:                                               ; preds = %26, %22, %12
  %33 = load i32, ptr %5, align 4
  ret i32 %33
}

; Function Attrs: nounwind uwtable
define i32 @arkRelaxPrintAllStats(ptr noundef %0, ptr noundef %1, i32 noundef %2) #0 {
  %4 = alloca i32, align 4
  %5 = alloca ptr, align 8
  %6 = alloca ptr, align 8
  %7 = alloca i32, align 4
  %8 = alloca i32, align 4
  %9 = alloca ptr, align 8
  %10 = alloca ptr, align 8
  store ptr %0, ptr %5, align 8
  store ptr %1, ptr %6, align 8
  store i32 %2, ptr %7, align 4
  %11 = load ptr, ptr %5, align 8
  %12 = call i32 @arkRelaxAccessMem(ptr noundef %11, ptr noundef @__func__.arkRelaxPrintAllStats, ptr noundef %9, ptr noundef %10)
  store i32 %12, ptr %8, align 4
  %13 = load i32, ptr %8, align 4
  %14 = icmp ne i32 %13, 0
  br i1 %14, label %15, label %17

15:                                               ; preds = %3
  %16 = load i32, ptr %8, align 4
  store i32 %16, ptr %4, align 4
  br label %84

17:                                               ; preds = %3
  %18 = load i32, ptr %7, align 4
  switch i32 %18, label %81 [
    i32 0, label %19
    i32 1, label %50
  ]

19:                                               ; preds = %17
  %20 = load ptr, ptr %6, align 8
  %21 = load ptr, ptr %10, align 8
  %22 = getelementptr inbounds %struct.ARKodeRelaxMemRec, ptr %21, i32 0, i32 5
  %23 = load i64, ptr %22, align 8
  %24 = call i32 (ptr, ptr, ...) @fprintf(ptr noundef %20, ptr noundef @.str.2, i64 noundef %23) #6
  %25 = load ptr, ptr %6, align 8
  %26 = load ptr, ptr %10, align 8
  %27 = getelementptr inbounds %struct.ARKodeRelaxMemRec, ptr %26, i32 0, i32 6
  %28 = load i64, ptr %27, align 8
  %29 = call i32 (ptr, ptr, ...) @fprintf(ptr noundef %25, ptr noundef @.str.3, i64 noundef %28) #6
  %30 = load ptr, ptr %6, align 8
  %31 = load ptr, ptr %10, align 8
  %32 = getelementptr inbounds %struct.ARKodeRelaxMemRec, ptr %31, i32 0, i32 7
  %33 = load i64, ptr %32, align 8
  %34 = call i32 (ptr, ptr, ...) @fprintf(ptr noundef %30, ptr noundef @.str.4, i64 noundef %33) #6
  %35 = load ptr, ptr %6, align 8
  %36 = load ptr, ptr %10, align 8
  %37 = getelementptr inbounds %struct.ARKodeRelaxMemRec, ptr %36, i32 0, i32 24
  %38 = load i64, ptr %37, align 8
  %39 = call i32 (ptr, ptr, ...) @fprintf(ptr noundef %35, ptr noundef @.str.5, i64 noundef %38) #6
  %40 = load ptr, ptr %6, align 8
  %41 = load ptr, ptr %10, align 8
  %42 = getelementptr inbounds %struct.ARKodeRelaxMemRec, ptr %41, i32 0, i32 22
  %43 = load i64, ptr %42, align 8
  %44 = call i32 (ptr, ptr, ...) @fprintf(ptr noundef %40, ptr noundef @.str.6, i64 noundef %43) #6
  %45 = load ptr, ptr %6, align 8
  %46 = load ptr, ptr %10, align 8
  %47 = getelementptr inbounds %struct.ARKodeRelaxMemRec, ptr %46, i32 0, i32 23
  %48 = load i64, ptr %47, align 8
  %49 = call i32 (ptr, ptr, ...) @fprintf(ptr noundef %45, ptr noundef @.str.7, i64 noundef %48) #6
  br label %83

50:                                               ; preds = %17
  %51 = load ptr, ptr %6, align 8
  %52 = load ptr, ptr %10, align 8
  %53 = getelementptr inbounds %struct.ARKodeRelaxMemRec, ptr %52, i32 0, i32 5
  %54 = load i64, ptr %53, align 8
  %55 = call i32 (ptr, ptr, ...) @fprintf(ptr noundef %51, ptr noundef @.str.8, i64 noundef %54) #6
  %56 = load ptr, ptr %6, align 8
  %57 = load ptr, ptr %10, align 8
  %58 = getelementptr inbounds %struct.ARKodeRelaxMemRec, ptr %57, i32 0, i32 6
  %59 = load i64, ptr %58, align 8
  %60 = call i32 (ptr, ptr, ...) @fprintf(ptr noundef %56, ptr noundef @.str.9, i64 noundef %59) #6
  %61 = load ptr, ptr %6, align 8
  %62 = load ptr, ptr %10, align 8
  %63 = getelementptr inbounds %struct.ARKodeRelaxMemRec, ptr %62, i32 0, i32 7
  %64 = load i64, ptr %63, align 8
  %65 = call i32 (ptr, ptr, ...) @fprintf(ptr noundef %61, ptr noundef @.str.10, i64 noundef %64) #6
  %66 = load ptr, ptr %6, align 8
  %67 = load ptr, ptr %10, align 8
  %68 = getelementptr inbounds %struct.ARKodeRelaxMemRec, ptr %67, i32 0, i32 24
  %69 = load i64, ptr %68, align 8
  %70 = call i32 (ptr, ptr, ...) @fprintf(ptr noundef %66, ptr noundef @.str.11, i64 noundef %69) #6
  %71 = load ptr, ptr %6, align 8
  %72 = load ptr, ptr %10, align 8
  %73 = getelementptr inbounds %struct.ARKodeRelaxMemRec, ptr %72, i32 0, i32 22
  %74 = load i64, ptr %73, align 8
  %75 = call i32 (ptr, ptr, ...) @fprintf(ptr noundef %71, ptr noundef @.str.12, i64 noundef %74) #6
  %76 = load ptr, ptr %6, align 8
  %77 = load ptr, ptr %10, align 8
  %78 = getelementptr inbounds %struct.ARKodeRelaxMemRec, ptr %77, i32 0, i32 23
  %79 = load i64, ptr %78, align 8
  %80 = call i32 (ptr, ptr, ...) @fprintf(ptr noundef %76, ptr noundef @.str.13, i64 noundef %79) #6
  br label %83

81:                                               ; preds = %17
  %82 = load ptr, ptr %9, align 8
  call void (ptr, i32, i32, ptr, ptr, ptr, ...) @arkProcessError(ptr noundef %82, i32 noundef -22, i32 noundef 669, ptr noundef @__func__.arkRelaxPrintAllStats, ptr noundef @.str, ptr noundef @.str.14)
  store i32 -22, ptr %4, align 4
  br label %84

83:                                               ; preds = %50, %19
  store i32 0, ptr %4, align 4
  br label %84

84:                                               ; preds = %83, %81, %15
  %85 = load i32, ptr %4, align 4
  ret i32 %85
}