; Function Attrs: nounwind uwtable
define range(i32 -44, 1) i32 @arkRelaxPrintAllStats(ptr noundef %0, ptr noundef captures(none) %1, i32 noundef %2) local_unnamed_addr #0 {
  %.not.i = icmp eq ptr %0, null
  br i1 %.not.i, label %4, label %5

4:                                                ; preds = %3
  tail call void (ptr, i32, i32, ptr, ptr, ptr, ...) @arkProcessError(ptr noundef null, i32 noundef -21, i32 noundef 42, ptr noundef nonnull @__func__.arkRelaxPrintAllStats, ptr noundef nonnull @.str, ptr noundef nonnull @.str.15) #8
  br label %arkRelaxAccessMem.exit.thread

5:                                                ; preds = %3
  %6 = getelementptr inbounds nuw i8, ptr %0, i64 648
  %7 = load ptr, ptr %6, align 8
  %.not11.i = icmp eq ptr %7, null
  br i1 %.not11.i, label %8, label %arkRelaxAccessMem.exit

8:                                                ; preds = %5
  tail call void (ptr, i32, i32, ptr, ptr, ptr, ...) @arkProcessError(ptr noundef nonnull %0, i32 noundef -44, i32 noundef 50, ptr noundef nonnull @__func__.arkRelaxPrintAllStats, ptr noundef nonnull @.str, ptr noundef nonnull @.str.19) #8
  br label %arkRelaxAccessMem.exit.thread

arkRelaxAccessMem.exit:                           ; preds = %5
  switch i32 %2, label %47 [
    i32 0, label %9
    i32 1, label %28
  ]

9:                                                ; preds = %arkRelaxAccessMem.exit
  %10 = getelementptr inbounds nuw i8, ptr %7, i64 40
  %11 = load i64, ptr %10, align 8
  %12 = tail call i32 (ptr, ptr, ...) @fprintf(ptr noundef %1, ptr noundef nonnull @.str.2, i64 noundef %11) #8
  %13 = getelementptr inbounds nuw i8, ptr %7, i64 48
  %14 = load i64, ptr %13, align 8
  %15 = tail call i32 (ptr, ptr, ...) @fprintf(ptr noundef %1, ptr noundef nonnull @.str.3, i64 noundef %14) #8
  %16 = getelementptr inbounds nuw i8, ptr %7, i64 56
  %17 = load i64, ptr %16, align 8
  %18 = tail call i32 (ptr, ptr, ...) @fprintf(ptr noundef %1, ptr noundef nonnull @.str.4, i64 noundef %17) #8
  %19 = getelementptr inbounds nuw i8, ptr %7, i64 192
  %20 = load i64, ptr %19, align 8
  %21 = tail call i32 (ptr, ptr, ...) @fprintf(ptr noundef %1, ptr noundef nonnull @.str.5, i64 noundef %20) #8
  %22 = getelementptr inbounds nuw i8, ptr %7, i64 176
  %23 = load i64, ptr %22, align 8
  %24 = tail call i32 (ptr, ptr, ...) @fprintf(ptr noundef %1, ptr noundef nonnull @.str.6, i64 noundef %23) #8
  %25 = getelementptr inbounds nuw i8, ptr %7, i64 184
  %26 = load i64, ptr %25, align 8
  %27 = tail call i32 (ptr, ptr, ...) @fprintf(ptr noundef %1, ptr noundef nonnull @.str.7, i64 noundef %26) #8
  br label %arkRelaxAccessMem.exit.thread

28:                                               ; preds = %arkRelaxAccessMem.exit
  %29 = getelementptr inbounds nuw i8, ptr %7, i64 40
  %30 = load i64, ptr %29, align 8
  %31 = tail call i32 (ptr, ptr, ...) @fprintf(ptr noundef %1, ptr noundef nonnull @.str.8, i64 noundef %30) #8
  %32 = getelementptr inbounds nuw i8, ptr %7, i64 48
  %33 = load i64, ptr %32, align 8
  %34 = tail call i32 (ptr, ptr, ...) @fprintf(ptr noundef %1, ptr noundef nonnull @.str.9, i64 noundef %33) #8
  %35 = getelementptr inbounds nuw i8, ptr %7, i64 56
  %36 = load i64, ptr %35, align 8
  %37 = tail call i32 (ptr, ptr, ...) @fprintf(ptr noundef %1, ptr noundef nonnull @.str.10, i64 noundef %36) #8
  %38 = getelementptr inbounds nuw i8, ptr %7, i64 192
  %39 = load i64, ptr %38, align 8
  %40 = tail call i32 (ptr, ptr, ...) @fprintf(ptr noundef %1, ptr noundef nonnull @.str.11, i64 noundef %39) #8
  %41 = getelementptr inbounds nuw i8, ptr %7, i64 176
  %42 = load i64, ptr %41, align 8
  %43 = tail call i32 (ptr, ptr, ...) @fprintf(ptr noundef %1, ptr noundef nonnull @.str.12, i64 noundef %42) #8
  %44 = getelementptr inbounds nuw i8, ptr %7, i64 184
  %45 = load i64, ptr %44, align 8
  %46 = tail call i32 (ptr, ptr, ...) @fprintf(ptr noundef %1, ptr noundef nonnull @.str.13, i64 noundef %45) #8
  br label %arkRelaxAccessMem.exit.thread

47:                                               ; preds = %arkRelaxAccessMem.exit
  tail call void (ptr, i32, i32, ptr, ptr, ptr, ...) @arkProcessError(ptr noundef nonnull %0, i32 noundef -22, i32 noundef 669, ptr noundef nonnull @__func__.arkRelaxPrintAllStats, ptr noundef nonnull @.str, ptr noundef nonnull @.str.14) #8
  br label %arkRelaxAccessMem.exit.thread

arkRelaxAccessMem.exit.thread:                    ; preds = %4, %8, %9, %28, %47
  %.0 = phi i32 [ -22, %47 ], [ 0, %28 ], [ 0, %9 ], [ -21, %4 ], [ -44, %8 ]
  ret i32 %.0
}